target datalayout = "e-m:e-p270:32:32-p271:32:32-p272:64:64-i64:64-i128:128-f80:128-n8:16:32:64-S128"
target triple = "x86_64-pc-linux-gnu"

%struct._PySeqLock = type { i32 }

; Function Attrs: inlinehint nounwind uwtable
define internal void @_Py_atomic_fence_release() #2 {
  fence release
  ret void
}

; Function Attrs: inlinehint nounwind uwtable
define internal i32 @_Py_atomic_compare_exchange_uint32(ptr noundef %0, ptr noundef %1, i32 noundef %2) #2 {
  %4 = alloca ptr, align 8
  %5 = alloca ptr, align 8
  %6 = alloca i32, align 4
  %7 = alloca i32, align 4
  %8 = alloca i8, align 1
  store ptr %0, ptr %4, align 8, !tbaa !42
  store ptr %1, ptr %5, align 8, !tbaa !42
  store i32 %2, ptr %6, align 4, !tbaa !11
  %9 = load ptr, ptr %4, align 8, !tbaa !42
  %10 = load ptr, ptr %5, align 8, !tbaa !42
  %11 = load i32, ptr %6, align 4, !tbaa !11
  store i32 %11, ptr %7, align 4, !tbaa !11
  %12 = load i32, ptr %10, align 4
  %13 = load i32, ptr %7, align 4
  %14 = cmpxchg ptr %9, i32 %12, i32 %13 seq_cst seq_cst, align 4
  %15 = extractvalue { i32, i1 } %14, 0
  %16 = extractvalue { i32, i1 } %14, 1
  br i1 %16, label %18, label %17

17:                                               ; preds = %3
  store i32 %15, ptr %10, align 4
  br label %18

18:                                               ; preds = %17, %3
  %19 = zext i1 %16 to i8
  store i8 %19, ptr %8, align 1, !tbaa !19
  %20 = load i8, ptr %8, align 1, !tbaa !19, !range !21, !noundef !22
  %21 = trunc i8 %20 to i1
  %22 = zext i1 %21 to i32
  ret i32 %22
}

; Function Attrs: nounwind uwtable
define internal void @_Py_yield() #0 {
  %1 = call i32 @sched_yield() #7
  ret void
}

; Function Attrs: inlinehint nounwind uwtable
define internal i32 @_Py_atomic_load_uint32_relaxed(ptr noundef %0) #2 {
  %2 = alloca ptr, align 8
  %3 = alloca i32, align 4
  store ptr %0, ptr %2, align 8, !tbaa !42
  %4 = load ptr, ptr %2, align 8, !tbaa !42
  %5 = load atomic i32, ptr %4 monotonic, align 4
  store i32 %5, ptr %3, align 4
  %6 = load i32, ptr %3, align 4, !tbaa !11
  ret i32 %6
}

; Function Attrs: nounwind uwtable
define dso_local void @_PySeqLock_LockWrite(ptr noundef %0) #0 {
  %2 = alloca ptr, align 8
  %3 = alloca i32, align 4
  store ptr %0, ptr %2, align 8, !tbaa !25
  call void @llvm.lifetime.start.p0(i64 4, ptr %3) #7
  %4 = load ptr, ptr %2, align 8, !tbaa !25
  %5 = getelementptr inbounds nuw %struct._PySeqLock, ptr %4, i32 0, i32 0
  %6 = call i32 @_Py_atomic_load_uint32_relaxed(ptr noundef %5)
  store i32 %6, ptr %3, align 4, !tbaa !11
  br label %7

7:                                                ; preds = %26, %1
  br label %8

8:                                                ; preds = %7
  %9 = load i32, ptr %3, align 4, !tbaa !11
  %10 = and i32 %9, 1
  %11 = icmp ne i32 %10, 0
  br i1 %11, label %12, label %16

12:                                               ; preds = %8
  call void @_Py_yield()
  %13 = load ptr, ptr %2, align 8, !tbaa !25
  %14 = getelementptr inbounds nuw %struct._PySeqLock, ptr %13, i32 0, i32 0
  %15 = call i32 @_Py_atomic_load_uint32_relaxed(ptr noundef %14)
  store i32 %15, ptr %3, align 4, !tbaa !11
  br label %26

16:                                               ; preds = %8
  %17 = load ptr, ptr %2, align 8, !tbaa !25
  %18 = getelementptr inbounds nuw %struct._PySeqLock, ptr %17, i32 0, i32 0
  %19 = load i32, ptr %3, align 4, !tbaa !11
  %20 = add i32 %19, 1
  %21 = call i32 @_Py_atomic_compare_exchange_uint32(ptr noundef %18, ptr noundef %3, i32 noundef %20)
  %22 = icmp ne i32 %21, 0
  br i1 %22, label %23, label %24

23:                                               ; preds = %16
  call void @_Py_atomic_fence_release()
  br label %27

24:                                               ; preds = %16
  call void @_Py_yield()
  br label %25

25:                                               ; preds = %24
  br label %26

26:                                               ; preds = %25, %12
  br label %7

27:                                               ; preds = %23
  call void @llvm.lifetime.end.p0(i64 4, ptr %3) #7
  ret void
}