; Function Attrs: nounwind uwtable
define dso_local void @_PySeqLock_LockWrite(ptr noundef captures(none) %0) local_unnamed_addr #0 {
  %2 = load atomic i32, ptr %0 monotonic, align 4
  br label %3

3:                                                ; preds = %.backedge, %1
  %.0 = phi i32 [ %2, %1 ], [ %.0.be, %.backedge ]
  %4 = and i32 %.0, 1
  %.not = icmp eq i32 %4, 0
  br i1 %.not, label %8, label %5

5:                                                ; preds = %3
  %6 = tail call i32 @sched_yield() #8
  %7 = load atomic i32, ptr %0 monotonic, align 4
  br label %.backedge

8:                                                ; preds = %3
  %9 = or disjoint i32 %.0, 1
  %10 = cmpxchg ptr %0, i32 %.0, i32 %9 seq_cst seq_cst, align 4
  %11 = extractvalue { i32, i1 } %10, 1
  br i1 %11, label %12, label %13

12:                                               ; preds = %8
  fence release
  ret void

13:                                               ; preds = %8
  %14 = extractvalue { i32, i1 } %10, 0
  %15 = tail call i32 @sched_yield() #8
  br label %.backedge

.backedge:                                        ; preds = %13, %5
  %.0.be = phi i32 [ %14, %13 ], [ %7, %5 ]
  br label %3
}